; Function Attrs: mustprogress uwtable
define hidden void @_ZN4cvc58internal6theory2uf13FunctionConst12toArrayConstENS0_12NodeTemplateILb0EEE(ptr dead_on_unwind noalias writable writeonly sret(%"class.cvc5::internal::NodeTemplate") align 8 captures(none) %0, ptr noundef readonly captures(none) %1) local_unnamed_addr #3 align 2 personality ptr @__gxx_personality_v0 {
  %3 = alloca %"class.cvc5::internal::NodeTemplate.0", align 8
  %4 = alloca %"class.cvc5::internal::TypeNode", align 8
  %5 = alloca %"class.cvc5::internal::NodeTemplate.0", align 8
  %6 = load ptr, ptr %1, align 8, !tbaa !3
  %7 = getelementptr inbounds nuw i8, ptr %6, i64 8
  %8 = load i64, ptr %7, align 8
  %9 = trunc i64 %8 to i32
  %10 = and i32 %9, 1023
  switch i32 %10, label %51 [
    i32 35, label %11
    i32 29, label %29
  ]

11:                                               ; preds = %2
  %12 = tail call noundef nonnull align 8 dereferenceable(16) ptr @_ZNK4cvc58internal4expr9NodeValue8getConstINS0_18FunctionArrayConstEEERKT_v(ptr noundef nonnull align 8 dereferenceable(24) %6)
  %13 = tail call noundef nonnull align 8 dereferenceable(8) ptr @_ZNK4cvc58internal18FunctionArrayConst13getArrayValueEv(ptr noundef nonnull align 8 dereferenceable(16) %12)
  %14 = load ptr, ptr %13, align 8, !tbaa !9
  store ptr %14, ptr %0, align 8, !tbaa !9
  %15 = load i64, ptr %14, align 8
  %16 = lshr i64 %15, 40
  %17 = trunc nuw nsw i64 %16 to i32
  %18 = and i32 %17, 1048575
  %19 = icmp samesign ult i32 %18, 1048574
  br i1 %19, label %20, label %25, !prof !11

20:                                               ; preds = %11
  %21 = add i64 %15, 1099511627776
  %22 = and i64 %21, 1152920405095219200
  %23 = and i64 %15, -1152920405095219201
  %24 = or disjoint i64 %22, %23
  store i64 %24, ptr %14, align 8
  br label %_ZN4cvc58internal12NodeTemplateILb1EEC2ERKS2_.exit

25:                                               ; preds = %11
  %26 = icmp eq i32 %18, 1048574
  br i1 %26, label %27, label %_ZN4cvc58internal12NodeTemplateILb1EEC2ERKS2_.exit, !prof !12

27:                                               ; preds = %25
  %28 = or i64 %15, 1152920405095219200
  store i64 %28, ptr %14, align 8
  tail call void @_ZN4cvc58internal4expr9NodeValue20markRefCountMaxedOutEv(ptr noundef nonnull align 8 dereferenceable(24) %14)
  br label %_ZN4cvc58internal12NodeTemplateILb1EEC2ERKS2_.exit

29:                                               ; preds = %2
  store ptr %6, ptr %3, align 8, !tbaa !3
  call void @llvm.lifetime.start.p0(i64 8, ptr nonnull %5) #20
  tail call void @llvm.experimental.noalias.scope.decl(metadata !329)
  %30 = tail call noundef i32 @_ZN4cvc58internal4kind10metaKindOfENS1_6Kind_tE(i32 noundef 29)
  %31 = icmp eq i32 %30, 2
  %spec.select.i.i = select i1 %31, i64 2, i64 1
  %32 = getelementptr inbounds nuw i8, ptr %6, i64 24
  %33 = getelementptr inbounds nuw [0 x ptr], ptr %32, i64 0, i64 %spec.select.i.i
  %34 = load ptr, ptr %33, align 8, !tbaa !100, !noalias !329
  store ptr %34, ptr %5, align 8, !tbaa !3, !alias.scope !329
  call void @_ZNK4cvc58internal12NodeTemplateILb0EE7getTypeEb(ptr dead_on_unwind nonnull writable sret(%"class.cvc5::internal::TypeNode") align 8 %4, ptr noundef nonnull align 8 dereferenceable(8) %5, i1 noundef zeroext false)
  invoke void @_ZN4cvc58internal6theory2uf13FunctionConst34getArrayRepresentationForLambdaRecENS0_12NodeTemplateILb0EEENS0_8TypeNodeE(ptr dead_on_unwind writable sret(%"class.cvc5::internal::NodeTemplate") align 8 %0, ptr noundef nonnull %3, ptr noundef nonnull %4)
          to label %35 unwind label %49

35:                                               ; preds = %29
  %36 = load ptr, ptr %4, align 8, !tbaa !117
  %37 = load i64, ptr %36, align 8
  %38 = and i64 %37, 1152920405095219200
  %.not.i.i = icmp eq i64 %38, 1152920405095219200
  br i1 %.not.i.i, label %_ZN4cvc58internal8TypeNodeD2Ev.exit, label %39, !prof !12

39:                                               ; preds = %35
  %40 = add i64 %37, 1152920405095219200
  %41 = and i64 %40, 1152920405095219200
  %42 = and i64 %37, -1152920405095219201
  %43 = or disjoint i64 %41, %42
  store i64 %43, ptr %36, align 8
  %44 = icmp eq i64 %41, 0
  br i1 %44, label %45, label %_ZN4cvc58internal8TypeNodeD2Ev.exit, !prof !12

45:                                               ; preds = %39
  invoke void @_ZN4cvc58internal4expr9NodeValue15markForDeletionEv(ptr noundef nonnull align 8 dereferenceable(24) %36)
          to label %_ZN4cvc58internal8TypeNodeD2Ev.exit unwind label %46

46:                                               ; preds = %45
  %47 = landingpad { ptr, i32 }
          catch ptr null
  %48 = extractvalue { ptr, i32 } %47, 0
  call void @__clang_call_terminate(ptr %48) #21
  unreachable

_ZN4cvc58internal8TypeNodeD2Ev.exit:              ; preds = %35, %39, %45
  call void @llvm.lifetime.end.p0(i64 8, ptr nonnull %5) #20
  br label %_ZN4cvc58internal12NodeTemplateILb1EEC2ERKS2_.exit

49:                                               ; preds = %29
  %50 = landingpad { ptr, i32 }
          cleanup
  call void @_ZN4cvc58internal8TypeNodeD2Ev(ptr noundef nonnull align 8 dereferenceable(8) %4) #20
  call void @llvm.lifetime.end.p0(i64 8, ptr nonnull %5) #20
  resume { ptr, i32 } %50

51:                                               ; preds = %2
  tail call void @llvm.experimental.noalias.scope.decl(metadata !332)
  %52 = load ptr, ptr @_ZN4cvc58internal12NodeTemplateILb1EE6s_nullE, align 8, !tbaa !9, !noalias !332
  store ptr %52, ptr %0, align 8, !tbaa !9, !alias.scope !332
  %53 = load i64, ptr %52, align 8, !noalias !332
  %54 = lshr i64 %53, 40
  %55 = trunc nuw nsw i64 %54 to i32
  %56 = and i32 %55, 1048575
  %57 = icmp samesign ult i32 %56, 1048574
  br i1 %57, label %58, label %63, !prof !11

58:                                               ; preds = %51
  %59 = add i64 %53, 1099511627776
  %60 = and i64 %59, 1152920405095219200
  %61 = and i64 %53, -1152920405095219201
  %62 = or disjoint i64 %60, %61
  store i64 %62, ptr %52, align 8, !noalias !332
  br label %_ZN4cvc58internal12NodeTemplateILb1EEC2ERKS2_.exit

63:                                               ; preds = %51
  %64 = icmp eq i32 %56, 1048574
  br i1 %64, label %65, label %_ZN4cvc58internal12NodeTemplateILb1EEC2ERKS2_.exit, !prof !12

65:                                               ; preds = %63
  %66 = or i64 %53, 1152920405095219200
  store i64 %66, ptr %52, align 8, !noalias !332
  tail call void @_ZN4cvc58internal4expr9NodeValue20markRefCountMaxedOutEv(ptr noundef nonnull align 8 dereferenceable(24) %52), !noalias !332
  br label %_ZN4cvc58internal12NodeTemplateILb1EEC2ERKS2_.exit

_ZN4cvc58internal12NodeTemplateILb1EEC2ERKS2_.exit: ; preds = %65, %63, %58, %27, %25, %20, %_ZN4cvc58internal8TypeNodeD2Ev.exit
  ret void
}